target datalayout = "e-m:e-p270:32:32-p271:32:32-p272:64:64-i64:64-i128:128-f80:128-n8:16:32:64-S128"
target triple = "x86_64-unknown-linux-gnu"

; Function Attrs: mustprogress nounwind uwtable
define hidden void @_ZN9SampleICC5Swap8ERhS0_(ptr noundef nonnull align 1 dereferenceable(1) %a, ptr noundef nonnull align 1 dereferenceable(1) %b) #4 {
entry:
  %a.addr = alloca ptr, align 8
  %b.addr = alloca ptr, align 8
  %tmp = alloca i8, align 1
  store ptr %a, ptr %a.addr, align 8
  store ptr %b, ptr %b.addr, align 8
  %0 = load ptr, ptr %a.addr, align 8
  %1 = load i8, ptr %0, align 1
  store i8 %1, ptr %tmp, align 1
  %2 = load ptr, ptr %b.addr, align 8
  %3 = load i8, ptr %2, align 1
  %4 = load ptr, ptr %a.addr, align 8
  store i8 %3, ptr %4, align 1
  %5 = load i8, ptr %tmp, align 1
  %6 = load ptr, ptr %b.addr, align 8
  store i8 %5, ptr %6, align 1
  ret void
}

; Function Attrs: mustprogress nounwind uwtable
define hidden void @_ZN9SampleICC11Swap32ArrayEPvi(ptr noundef %pVoid, i32 noundef %num) #4 {
entry:
  %pVoid.addr = alloca ptr, align 8
  %num.addr = alloca i32, align 4
  %ptr = alloca ptr, align 8
  store ptr %pVoid, ptr %pVoid.addr, align 8
  store i32 %num, ptr %num.addr, align 4
  %0 = load ptr, ptr %pVoid.addr, align 8
  store ptr %0, ptr %ptr, align 8
  br label %while.cond

while.cond:                                       ; preds = %while.body, %entry
  %1 = load i32, ptr %num.addr, align 4
  %cmp = icmp sgt i32 %1, 0
  br i1 %cmp, label %while.body, label %while.end

while.body:                                       ; preds = %while.cond
  %2 = load ptr, ptr %ptr, align 8
  %arrayidx = getelementptr inbounds i8, ptr %2, i64 0
  %3 = load ptr, ptr %ptr, align 8
  %arrayidx1 = getelementptr inbounds i8, ptr %3, i64 3
  call void @_ZN9SampleICC5Swap8ERhS0_(ptr noundef nonnull align 1 dereferenceable(1) %arrayidx, ptr noundef nonnull align 1 dereferenceable(1) %arrayidx1)
  %4 = load ptr, ptr %ptr, align 8
  %arrayidx2 = getelementptr inbounds i8, ptr %4, i64 1
  %5 = load ptr, ptr %ptr, align 8
  %arrayidx3 = getelementptr inbounds i8, ptr %5, i64 2
  call void @_ZN9SampleICC5Swap8ERhS0_(ptr noundef nonnull align 1 dereferenceable(1) %arrayidx2, ptr noundef nonnull align 1 dereferenceable(1) %arrayidx3)
  %6 = load ptr, ptr %ptr, align 8
  %add.ptr = getelementptr inbounds i8, ptr %6, i64 4
  store ptr %add.ptr, ptr %ptr, align 8
  %7 = load i32, ptr %num.addr, align 4
  %dec = add nsw i32 %7, -1
  store i32 %dec, ptr %num.addr, align 4
  br label %while.cond, !llvm.loop !6

while.end:                                        ; preds = %while.cond
  ret void
}

; Function Attrs: mustprogress uwtable
define hidden noundef i32 @_ZN9SampleICC5Read8ERSiPvi(ptr noundef nonnull align 8 dereferenceable(16) %istream, ptr noundef %pBuf, i32 noundef %num) #5 {
entry:
  %retval = alloca i32, align 4
  %istream.addr = alloca ptr, align 8
  %pBuf.addr = alloca ptr, align 8
  %num.addr = alloca i32, align 4
  %pBufChar = alloca ptr, align 8
  store ptr %istream, ptr %istream.addr, align 8
  store ptr %pBuf, ptr %pBuf.addr, align 8
  store i32 %num, ptr %num.addr, align 4
  %0 = load ptr, ptr %istream.addr, align 8
  %vtable = load ptr, ptr %0, align 8
  %vbase.offset.ptr = getelementptr i8, ptr %vtable, i64 -24
  %vbase.offset = load i64, ptr %vbase.offset.ptr, align 8
  %add.ptr = getelementptr inbounds i8, ptr %0, i64 %vbase.offset
  %call = call noundef zeroext i1 @_ZNKSt9basic_iosIcSt11char_traitsIcEE4goodEv(ptr noundef nonnull align 8 dereferenceable(264) %add.ptr)
  br i1 %call, label %if.end, label %if.then

if.then:                                          ; preds = %entry
  store i32 0, ptr %retval, align 4
  br label %return

if.end:                                           ; preds = %entry
  %1 = load ptr, ptr %pBuf.addr, align 8
  store ptr %1, ptr %pBufChar, align 8
  %2 = load ptr, ptr %istream.addr, align 8
  %3 = load ptr, ptr %pBufChar, align 8
  %4 = load i32, ptr %num.addr, align 4
  %conv = sext i32 %4 to i64
  %call1 = call noundef nonnull align 8 dereferenceable(16) ptr @_ZNSi4readEPcl(ptr noundef nonnull align 8 dereferenceable(16) %2, ptr noundef %3, i64 noundef %conv)
  %5 = load ptr, ptr %istream.addr, align 8
  %vtable2 = load ptr, ptr %5, align 8
  %vbase.offset.ptr3 = getelementptr i8, ptr %vtable2, i64 -24
  %vbase.offset4 = load i64, ptr %vbase.offset.ptr3, align 8
  %add.ptr5 = getelementptr inbounds i8, ptr %5, i64 %vbase.offset4
  %call6 = call noundef zeroext i1 @_ZNKSt9basic_iosIcSt11char_traitsIcEE4goodEv(ptr noundef nonnull align 8 dereferenceable(264) %add.ptr5)
  br i1 %call6, label %if.end8, label %if.then7

if.then7:                                         ; preds = %if.end
  store i32 0, ptr %retval, align 4
  br label %return

if.end8:                                          ; preds = %if.end
  %6 = load i32, ptr %num.addr, align 4
  store i32 %6, ptr %retval, align 4
  br label %return

return:                                           ; preds = %if.end8, %if.then7, %if.then
  %7 = load i32, ptr %retval, align 4
  ret i32 %7
}

; Function Attrs: mustprogress uwtable
define hidden noundef i32 @_ZN9SampleICC6Read32ERSiPvi(ptr noundef nonnull align 8 dereferenceable(16) %istream, ptr noundef %pBuf32, i32 noundef %num) #5 {
entry:
  %istream.addr = alloca ptr, align 8
  %pBuf32.addr = alloca ptr, align 8
  %num.addr = alloca i32, align 4
  store ptr %istream, ptr %istream.addr, align 8
  store ptr %pBuf32, ptr %pBuf32.addr, align 8
  store i32 %num, ptr %num.addr, align 4
  %0 = load ptr, ptr %istream.addr, align 8
  %1 = load ptr, ptr %pBuf32.addr, align 8
  %2 = load i32, ptr %num.addr, align 4
  %shl = shl i32 %2, 2
  %call = call noundef i32 @_ZN9SampleICC5Read8ERSiPvi(ptr noundef nonnull align 8 dereferenceable(16) %0, ptr noundef %1, i32 noundef %shl)
  %shr = ashr i32 %call, 2
  store i32 %shr, ptr %num.addr, align 4
  %3 = load ptr, ptr %pBuf32.addr, align 8
  %4 = load i32, ptr %num.addr, align 4
  call void @_ZN9SampleICC11Swap32ArrayEPvi(ptr noundef %3, i32 noundef %4)
  %5 = load i32, ptr %num.addr, align 4
  ret i32 %5
}